; ModuleID = '49/1182.c'
source_filename = "49/1182.c"
target datalayout = "e-m:e-p270:32:32-p271:32:32-p272:64:64-i64:64-f80:128-n8:16:32:64-S128"
target triple = "x86_64-pc-linux-gnu"

@.str = private unnamed_addr constant [4 x i8] c"%s\0A\00", align 1

; Function Attrs: noinline nounwind uwtable
define dso_local i32 @main() #0 {
  %1 = alloca i32, align 4
  %2 = alloca [500 x i8], align 16
  %3 = alloca [500 x i8], align 16
  %4 = alloca [500 x i8], align 16
  %5 = alloca i32, align 4
  %6 = alloca i32, align 4
  %7 = alloca i32, align 4
  %8 = alloca i32, align 4
  %9 = alloca i32, align 4
  %10 = alloca i32, align 4
  store i32 0, i32* %1, align 4
  %11 = bitcast [500 x i8]* %2 to i8*
  call void @llvm.memset.p0i8.i64(i8* align 16 %11, i8 0, i64 500, i1 false)
  %12 = bitcast [500 x i8]* %3 to i8*
  call void @llvm.memset.p0i8.i64(i8* align 16 %12, i8 0, i64 500, i1 false)
  %13 = bitcast [500 x i8]* %4 to i8*
  call void @llvm.memset.p0i8.i64(i8* align 16 %13, i8 0, i64 500, i1 false)
  %14 = getelementptr inbounds [500 x i8], [500 x i8]* %4, i64 0, i64 0
  %15 = call i32 (i8*, ...) bitcast (i32 (...)* @gets to i32 (i8*, ...)*)(i8* %14)
  %16 = getelementptr inbounds [500 x i8], [500 x i8]* %4, i64 0, i64 0
  %17 = call i64 @strlen(i8* %16) #4
  %18 = trunc i64 %17 to i32
  store i32 %18, i32* %5, align 4
  store i32 2, i32* %6, align 4
  br label %19

19:                                               ; preds = %84, %0
  %20 = load i32, i32* %6, align 4
  %21 = load i32, i32* %5, align 4
  %22 = icmp sle i32 %20, %21
  br i1 %22, label %23, label %87

23:                                               ; preds = %19
  store i32 0, i32* %9, align 4
  br label %24

24:                                               ; preds = %80, %23
  %25 = load i32, i32* %9, align 4
  %26 = load i32, i32* %5, align 4
  %27 = load i32, i32* %6, align 4
  %28 = sub nsw i32 %26, %27
  %29 = icmp sle i32 %25, %28
  br i1 %29, label %30, label %83

30:                                               ; preds = %24
  %31 = load i32, i32* %9, align 4
  store i32 %31, i32* %7, align 4
  store i32 0, i32* %10, align 4
  br label %32

32:                                               ; preds = %47, %30
  %33 = load i32, i32* %7, align 4
  %34 = load i32, i32* %6, align 4
  %35 = sub nsw i32 %34, 1
  %36 = load i32, i32* %9, align 4
  %37 = add nsw i32 %35, %36
  %38 = icmp sle i32 %33, %37
  br i1 %38, label %39, label %52

39:                                               ; preds = %32
  %40 = load i32, i32* %7, align 4
  %41 = sext i32 %40 to i64
  %42 = getelementptr inbounds [500 x i8], [500 x i8]* %4, i64 0, i64 %41
  %43 = load i8, i8* %42, align 1
  %44 = load i32, i32* %10, align 4
  %45 = sext i32 %44 to i64
  %46 = getelementptr inbounds [500 x i8], [500 x i8]* %2, i64 0, i64 %45
  store i8 %43, i8* %46, align 1
  br label %47

47:                                               ; preds = %39
  %48 = load i32, i32* %7, align 4
  %49 = add nsw i32 %48, 1
  store i32 %49, i32* %7, align 4
  %50 = load i32, i32* %10, align 4
  %51 = add nsw i32 %50, 1
  store i32 %51, i32* %10, align 4
  br label %32

52:                                               ; preds = %32
  store i32 0, i32* %8, align 4
  br label %53

53:                                               ; preds = %68, %52
  %54 = load i32, i32* %8, align 4
  %55 = load i32, i32* %6, align 4
  %56 = icmp slt i32 %54, %55
  br i1 %56, label %57, label %71

57:                                               ; preds = %53
  %58 = load i32, i32* %6, align 4
  %59 = sub nsw i32 %58, 1
  %60 = load i32, i32* %8, align 4
  %61 = sub nsw i32 %59, %60
  %62 = sext i32 %61 to i64
  %63 = getelementptr inbounds [500 x i8], [500 x i8]* %2, i64 0, i64 %62
  %64 = load i8, i8* %63, align 1
  %65 = load i32, i32* %8, align 4
  %66 = sext i32 %65 to i64
  %67 = getelementptr inbounds [500 x i8], [500 x i8]* %3, i64 0, i64 %66
  store i8 %64, i8* %67, align 1
  br label %68

68:                                               ; preds = %57
  %69 = load i32, i32* %8, align 4
  %70 = add nsw i32 %69, 1
  store i32 %70, i32* %8, align 4
  br label %53

71:                                               ; preds = %53
  %72 = getelementptr inbounds [500 x i8], [500 x i8]* %2, i64 0, i64 0
  %73 = getelementptr inbounds [500 x i8], [500 x i8]* %3, i64 0, i64 0
  %74 = call i32 @strcmp(i8* %72, i8* %73) #4
  %75 = icmp eq i32 %74, 0
  br i1 %75, label %76, label %79

76:                                               ; preds = %71
  %77 = getelementptr inbounds [500 x i8], [500 x i8]* %2, i64 0, i64 0
  %78 = call i32 (i8*, ...) @printf(i8* getelementptr inbounds ([4 x i8], [4 x i8]* @.str, i64 0, i64 0), i8* %77)
  br label %79

79:                                               ; preds = %76, %71
  br label %80

80:                                               ; preds = %79
  %81 = load i32, i32* %9, align 4
  %82 = add nsw i32 %81, 1
  store i32 %82, i32* %9, align 4
  br label %24

83:                                               ; preds = %24
  br label %84

84:                                               ; preds = %83
  %85 = load i32, i32* %6, align 4
  %86 = add nsw i32 %85, 1
  store i32 %86, i32* %6, align 4
  br label %19

87:                                               ; preds = %19
  ret i32 0
}

; Function Attrs: argmemonly nounwind willreturn
declare void @llvm.memset.p0i8.i64(i8* nocapture writeonly, i8, i64, i1 immarg) #1

declare dso_local i32 @gets(...) #2

; Function Attrs: nounwind readonly
declare dso_local i64 @strlen(i8*) #3

; Function Attrs: nounwind readonly
declare dso_local i32 @strcmp(i8*, i8*) #3

declare dso_local i32 @printf(i8*, ...) #2


!llvm.module.flags = !{!0}
!llvm.ident = !{!1}

!0 = !{i32 1, !"wchar_size", i32 4}
!1 = !{!"clang version 10.0.0-4ubuntu1 "}
